target datalayout = "e-m:e-p270:32:32-p271:32:32-p272:64:64-i64:64-i128:128-f80:128-n8:16:32:64-S128"
target triple = "x86_64-pc-linux-gnu"

%struct.b3IndexedMesh = type <{ i32, [4 x i8], ptr, i32, i32, ptr, i32, i32, i32, [4 x i8] }>
%class.b3TriangleIndexVertexArray = type { %class.b3StridingMeshInterface, %class.b3AlignedObjectArray, [2 x i32], i32, [4 x i8], %class.b3Vector3, %class.b3Vector3 }
%class.b3StridingMeshInterface = type { ptr, [8 x i8], %class.b3Vector3 }
%class.b3AlignedObjectArray = type <{ [4 x i8], i32, i32, [4 x i8], ptr, i8, [7 x i8] }>
%class.b3Vector3 = type { %union.anon }
%union.anon = type { [4 x float] }

; Function Attrs: inlinehint mustprogress nounwind uwtable
define linkonce_odr dso_local noundef nonnull align 16 dereferenceable(44) ptr @_ZN20b3AlignedObjectArrayI13b3IndexedMeshEixEi(ptr noundef nonnull align 8 dereferenceable(25) %0, i32 noundef %1) #5 comdat align 2 {
  %3 = alloca ptr, align 8
  %4 = alloca i32, align 4
  store ptr %0, ptr %3, align 8, !tbaa !36
  store i32 %1, ptr %4, align 4, !tbaa !9
  %5 = load ptr, ptr %3, align 8
  %6 = getelementptr inbounds nuw %class.b3AlignedObjectArray, ptr %5, i32 0, i32 4
  %7 = load ptr, ptr %6, align 8, !tbaa !46
  %8 = load i32, ptr %4, align 4, !tbaa !9
  %9 = sext i32 %8 to i64
  %10 = getelementptr inbounds %struct.b3IndexedMesh, ptr %7, i64 %9
  ret ptr %10
}

; Function Attrs: mustprogress uwtable
define dso_local void @_ZN26b3TriangleIndexVertexArray24getLockedVertexIndexBaseEPPhRiR14PHY_ScalarTypeS2_S1_S2_S2_S4_i(ptr noundef nonnull align 16 dereferenceable(112) %0, ptr noundef %1, ptr noundef nonnull align 4 dereferenceable(4) %2, ptr noundef nonnull align 4 dereferenceable(4) %3, ptr noundef nonnull align 4 dereferenceable(4) %4, ptr noundef %5, ptr noundef nonnull align 4 dereferenceable(4) %6, ptr noundef nonnull align 4 dereferenceable(4) %7, ptr noundef nonnull align 4 dereferenceable(4) %8, i32 noundef %9) unnamed_addr #0 align 2 {
  %11 = alloca ptr, align 8
  %12 = alloca ptr, align 8
  %13 = alloca ptr, align 8
  %14 = alloca ptr, align 8
  %15 = alloca ptr, align 8
  %16 = alloca ptr, align 8
  %17 = alloca ptr, align 8
  %18 = alloca ptr, align 8
  %19 = alloca ptr, align 8
  %20 = alloca i32, align 4
  %21 = alloca ptr, align 8
  store ptr %0, ptr %11, align 8, !tbaa !4
  store ptr %1, ptr %12, align 8, !tbaa !43
  store ptr %2, ptr %13, align 8, !tbaa !11
  store ptr %3, ptr %14, align 8, !tbaa !42
  store ptr %4, ptr %15, align 8, !tbaa !11
  store ptr %5, ptr %16, align 8, !tbaa !43
  store ptr %6, ptr %17, align 8, !tbaa !11
  store ptr %7, ptr %18, align 8, !tbaa !11
  store ptr %8, ptr %19, align 8, !tbaa !42
  store i32 %9, ptr %20, align 4, !tbaa !9
  %22 = load ptr, ptr %11, align 8
  call void @llvm.lifetime.start.p0(i64 8, ptr %21) #10
  %23 = getelementptr inbounds nuw %class.b3TriangleIndexVertexArray, ptr %22, i32 0, i32 1
  %24 = load i32, ptr %20, align 4, !tbaa !9
  %25 = call noundef nonnull align 16 dereferenceable(44) ptr @_ZN20b3AlignedObjectArrayI13b3IndexedMeshEixEi(ptr noundef nonnull align 8 dereferenceable(25) %23, i32 noundef %24)
  store ptr %25, ptr %21, align 8, !tbaa !38
  %26 = load ptr, ptr %21, align 8, !tbaa !38
  %27 = getelementptr inbounds nuw %struct.b3IndexedMesh, ptr %26, i32 0, i32 4
  %28 = load i32, ptr %27, align 4, !tbaa !31
  %29 = load ptr, ptr %13, align 8, !tbaa !11
  store i32 %28, ptr %29, align 4, !tbaa !9
  %30 = load ptr, ptr %21, align 8, !tbaa !38
  %31 = getelementptr inbounds nuw %struct.b3IndexedMesh, ptr %30, i32 0, i32 5
  %32 = load ptr, ptr %31, align 8, !tbaa !32
  %33 = load ptr, ptr %12, align 8, !tbaa !43
  store ptr %32, ptr %33, align 8, !tbaa !45
  %34 = load ptr, ptr %21, align 8, !tbaa !38
  %35 = getelementptr inbounds nuw %struct.b3IndexedMesh, ptr %34, i32 0, i32 8
  %36 = load i32, ptr %35, align 8, !tbaa !40
  %37 = load ptr, ptr %14, align 8, !tbaa !42
  store i32 %36, ptr %37, align 4, !tbaa !41
  %38 = load ptr, ptr %21, align 8, !tbaa !38
  %39 = getelementptr inbounds nuw %struct.b3IndexedMesh, ptr %38, i32 0, i32 6
  %40 = load i32, ptr %39, align 16, !tbaa !33
  %41 = load ptr, ptr %15, align 8, !tbaa !11
  store i32 %40, ptr %41, align 4, !tbaa !9
  %42 = load ptr, ptr %21, align 8, !tbaa !38
  %43 = getelementptr inbounds nuw %struct.b3IndexedMesh, ptr %42, i32 0, i32 0
  %44 = load i32, ptr %43, align 16, !tbaa !25
  %45 = load ptr, ptr %18, align 8, !tbaa !11
  store i32 %44, ptr %45, align 4, !tbaa !9
  %46 = load ptr, ptr %21, align 8, !tbaa !38
  %47 = getelementptr inbounds nuw %struct.b3IndexedMesh, ptr %46, i32 0, i32 2
  %48 = load ptr, ptr %47, align 8, !tbaa !29
  %49 = load ptr, ptr %16, align 8, !tbaa !43
  store ptr %48, ptr %49, align 8, !tbaa !45
  %50 = load ptr, ptr %21, align 8, !tbaa !38
  %51 = getelementptr inbounds nuw %struct.b3IndexedMesh, ptr %50, i32 0, i32 3
  %52 = load i32, ptr %51, align 16, !tbaa !30
  %53 = load ptr, ptr %17, align 8, !tbaa !11
  store i32 %52, ptr %53, align 4, !tbaa !9
  %54 = load ptr, ptr %21, align 8, !tbaa !38
  %55 = getelementptr inbounds nuw %struct.b3IndexedMesh, ptr %54, i32 0, i32 7
  %56 = load i32, ptr %55, align 4, !tbaa !39
  %57 = load ptr, ptr %19, align 8, !tbaa !42
  store i32 %56, ptr %57, align 4, !tbaa !41
  call void @llvm.lifetime.end.p0(i64 8, ptr %21) #10
  ret void
}