; Function Attrs: mustprogress nofree norecurse nosync nounwind willreturn memory(read, argmem: readwrite, inaccessiblemem: none) uwtable
define dso_local void @_ZN26b3TriangleIndexVertexArray24getLockedVertexIndexBaseEPPhRiR14PHY_ScalarTypeS2_S1_S2_S2_S4_i(ptr noundef nonnull readonly align 16 captures(none) dereferenceable(112) %0, ptr noundef writeonly captures(none) initializes((0, 8)) %1, ptr noundef nonnull writeonly align 4 captures(none) dereferenceable(4) initializes((0, 4)) %2, ptr noundef nonnull writeonly align 4 captures(none) dereferenceable(4) initializes((0, 4)) %3, ptr noundef nonnull writeonly align 4 captures(none) dereferenceable(4) initializes((0, 4)) %4, ptr noundef writeonly captures(none) initializes((0, 8)) %5, ptr noundef nonnull writeonly align 4 captures(none) dereferenceable(4) initializes((0, 4)) %6, ptr noundef nonnull writeonly align 4 captures(none) dereferenceable(4) initializes((0, 4)) %7, ptr noundef nonnull writeonly align 4 captures(none) dereferenceable(4) initializes((0, 4)) %8, i32 noundef %9) unnamed_addr #4 align 2 {
  %11 = getelementptr inbounds nuw i8, ptr %0, i64 48
  %12 = load ptr, ptr %11, align 16, !tbaa !15
  %13 = sext i32 %9 to i64
  %14 = getelementptr inbounds %struct.b3IndexedMesh, ptr %12, i64 %13
  %15 = getelementptr inbounds nuw i8, ptr %14, i64 20
  %16 = load i32, ptr %15, align 4, !tbaa !30
  store i32 %16, ptr %2, align 4, !tbaa !35
  %17 = getelementptr inbounds nuw i8, ptr %14, i64 24
  %18 = load ptr, ptr %17, align 8, !tbaa !31
  store ptr %18, ptr %1, align 8, !tbaa !36
  %19 = getelementptr inbounds nuw i8, ptr %14, i64 40
  %20 = load i32, ptr %19, align 8, !tbaa !26
  store i32 %20, ptr %3, align 4, !tbaa !37
  %21 = getelementptr inbounds nuw i8, ptr %14, i64 32
  %22 = load i32, ptr %21, align 16, !tbaa !32
  store i32 %22, ptr %4, align 4, !tbaa !35
  %23 = load i32, ptr %14, align 16, !tbaa !27
  store i32 %23, ptr %7, align 4, !tbaa !35
  %24 = getelementptr inbounds nuw i8, ptr %14, i64 8
  %25 = load ptr, ptr %24, align 8, !tbaa !28
  store ptr %25, ptr %5, align 8, !tbaa !36
  %26 = getelementptr inbounds nuw i8, ptr %14, i64 16
  %27 = load i32, ptr %26, align 16, !tbaa !29
  store i32 %27, ptr %6, align 4, !tbaa !35
  %28 = getelementptr inbounds nuw i8, ptr %14, i64 36
  %29 = load i32, ptr %28, align 4, !tbaa !22
  store i32 %29, ptr %8, align 4, !tbaa !37
  ret void
}